; Function Attrs: mustprogress uwtable
define noundef zeroext i1 @_ZN6google8protobuf22DescriptorPoolDatabase24FindFileContainingSymbolERKNSt7__cxx1112basic_stringIcSt11char_traitsIcESaIcEEEPNS0_19FileDescriptorProtoE(ptr nocapture noundef nonnull readonly align 8 dereferenceable(16) %this, ptr noundef nonnull align 8 dereferenceable(32) %symbol_name, ptr noundef %output) unnamed_addr #6 align 2 {
entry:
  %pool_ = getelementptr inbounds i8, ptr %this, i64 8
  %0 = load ptr, ptr %pool_, align 8
  %call = tail call { i64, ptr } @_ZNKSt7__cxx1112basic_stringIcSt11char_traitsIcESaIcEEcvSt17basic_string_viewIcS2_EEv(ptr noundef nonnull align 8 dereferenceable(32) %symbol_name) #28
  %1 = extractvalue { i64, ptr } %call, 0
  %2 = extractvalue { i64, ptr } %call, 1
  %call2 = tail call noundef ptr @_ZNK6google8protobuf14DescriptorPool24FindFileContainingSymbolESt17basic_string_viewIcSt11char_traitsIcEE(ptr noundef nonnull align 8 dereferenceable(96) %0, i64 %1, ptr %2)
  %cmp = icmp ne ptr %call2, null
  br i1 %cmp, label %if.end, label %return

if.end:                                           ; preds = %entry
  tail call void @_ZN6google8protobuf19FileDescriptorProto5ClearEv(ptr noundef nonnull align 8 dereferenceable(224) %output)
  tail call void @_ZNK6google8protobuf14FileDescriptor6CopyToEPNS0_19FileDescriptorProtoE(ptr noundef nonnull align 8 dereferenceable(168) %call2, ptr noundef nonnull %output)
  br label %return

return:                                           ; preds = %entry, %if.end
  ret i1 %cmp
}